; Function Attrs: mustprogress uwtable
define hidden void @_ZN6Assimp23FlipWindingOrderProcess7ExecuteEP7aiScene(ptr nonnull readnone align 8 captures(none) %0, ptr noundef readonly captures(none) %1) unnamed_addr #5 align 2 {
  %3 = tail call noundef ptr @_ZN6Assimp13DefaultLogger3getEv()
  tail call void @_ZN6Assimp6Logger5debugEPKc(ptr noundef nonnull align 8 dereferenceable(12) %3, ptr noundef nonnull @.str.9)
  %4 = getelementptr inbounds nuw i8, ptr %1, i64 16
  %5 = load i32, ptr %4, align 8
  %.not = icmp eq i32 %5, 0
  br i1 %.not, label %._crit_edge, label %.lr.ph

.lr.ph:                                           ; preds = %2
  %6 = getelementptr inbounds nuw i8, ptr %1, i64 24
  br label %8

._crit_edge:                                      ; preds = %8, %2
  %7 = tail call noundef ptr @_ZN6Assimp13DefaultLogger3getEv()
  tail call void @_ZN6Assimp6Logger5debugEPKc(ptr noundef nonnull align 8 dereferenceable(12) %7, ptr noundef nonnull @.str.10)
  ret void

8:                                                ; preds = %.lr.ph, %8
  %indvars.iv = phi i64 [ 0, %.lr.ph ], [ %indvars.iv.next, %8 ]
  %9 = load ptr, ptr %6, align 8
  %10 = getelementptr inbounds nuw ptr, ptr %9, i64 %indvars.iv
  %11 = load ptr, ptr %10, align 8
  tail call void @_ZN6Assimp23FlipWindingOrderProcess11ProcessMeshEP6aiMesh(ptr noundef %11)
  %indvars.iv.next = add nuw nsw i64 %indvars.iv, 1
  %12 = load i32, ptr %4, align 8
  %13 = zext i32 %12 to i64
  %14 = icmp samesign ult i64 %indvars.iv.next, %13
  br i1 %14, label %8, label %._crit_edge, !llvm.loop !26
}